target datalayout = "e-m:e-p270:32:32-p271:32:32-p272:64:64-i64:64-i128:128-f80:128-n8:16:32:64-S128"
target triple = "x86_64-pc-linux-gnu"

%struct.slurmctld_lock_t = type { i32, i32, i32, i32, i32 }

@resv_list = dso_local global ptr null, align 8
@job_list = external global ptr, align 8
@__const._update_resv_jobs.job_write_lock = private unnamed_addr constant %struct.slurmctld_lock_t { i32 1, i32 2, i32 1, i32 0, i32 0 }, align 4

; Function Attrs: nounwind uwtable
define internal ptr @_update_resv_jobs(ptr noundef %0) #0 {
  %2 = alloca ptr, align 8
  %3 = alloca ptr, align 8
  %4 = alloca ptr, align 8
  %5 = alloca i32, align 4
  %6 = alloca %struct.slurmctld_lock_t, align 8
  %7 = alloca i32, align 4
  store ptr %0, ptr %3, align 8
  call void @llvm.lifetime.start.p0(i64 8, ptr %4) #10
  call void @llvm.lifetime.start.p0(i64 4, ptr %5) #10
  %8 = load ptr, ptr %3, align 8
  %9 = load i32, ptr %8, align 4
  store i32 %9, ptr %5, align 4
  call void @llvm.lifetime.start.p0(i64 20, ptr %6) #10
  call void @llvm.memcpy.p0.p0.i64(ptr align 4 %6, ptr align 4 @__const._update_resv_jobs.job_write_lock, i64 20, i1 false)
  call void @lock_slurmctld(ptr noundef byval(%struct.slurmctld_lock_t) align 8 %6)
  %10 = load ptr, ptr @resv_list, align 8
  %11 = icmp ne ptr %10, null
  br i1 %11, label %13, label %12

12:                                               ; preds = %1
  call void @unlock_slurmctld(ptr noundef byval(%struct.slurmctld_lock_t) align 8 %6)
  store ptr null, ptr %2, align 8
  store i32 1, ptr %7, align 4
  br label %23

13:                                               ; preds = %1
  %14 = load ptr, ptr @resv_list, align 8
  %15 = call ptr @list_find_first(ptr noundef %14, ptr noundef @_find_resv_id, ptr noundef %5)
  store ptr %15, ptr %4, align 8
  %16 = load ptr, ptr %4, align 8
  %17 = icmp ne ptr %16, null
  br i1 %17, label %19, label %18

18:                                               ; preds = %13
  call void @unlock_slurmctld(ptr noundef byval(%struct.slurmctld_lock_t) align 8 %6)
  store ptr null, ptr %2, align 8
  store i32 1, ptr %7, align 4
  br label %23

19:                                               ; preds = %13
  %20 = load ptr, ptr @job_list, align 8
  %21 = load ptr, ptr %4, align 8
  %22 = call i32 @list_for_each(ptr noundef %20, ptr noundef @_set_job_resvid, ptr noundef %21)
  call void @unlock_slurmctld(ptr noundef byval(%struct.slurmctld_lock_t) align 8 %6)
  store ptr null, ptr %2, align 8
  store i32 1, ptr %7, align 4
  br label %23

23:                                               ; preds = %19, %18, %12
  call void @llvm.lifetime.end.p0(i64 20, ptr %6) #10
  call void @llvm.lifetime.end.p0(i64 4, ptr %5) #10
  call void @llvm.lifetime.end.p0(i64 8, ptr %4) #10
  %24 = load ptr, ptr %2, align 8
  ret ptr %24
}