; Function Attrs: nounwind uwtable
define internal noalias noundef ptr @_update_resv_jobs(ptr noundef readonly captures(none) %0) #0 {
  %2 = alloca i32, align 4
  call void @llvm.lifetime.start.p0(i64 4, ptr nonnull %2) #19
  %3 = load i32, ptr %0, align 4
  store i32 %3, ptr %2, align 4
  tail call void @lock_slurmctld(ptr noundef nonnull byval(%struct.slurmctld_lock_t) align 8 @__const._update_resv_jobs.job_write_lock) #19
  %4 = load ptr, ptr @resv_list, align 8
  %.not = icmp eq ptr %4, null
  br i1 %.not, label %5, label %6

5:                                                ; preds = %1
  tail call void @unlock_slurmctld(ptr noundef nonnull byval(%struct.slurmctld_lock_t) align 8 @__const._update_resv_jobs.job_write_lock) #19
  br label %12

6:                                                ; preds = %1
  %7 = call ptr @list_find_first(ptr noundef nonnull %4, ptr noundef nonnull @_find_resv_id, ptr noundef nonnull %2) #19
  %.not5 = icmp eq ptr %7, null
  br i1 %.not5, label %8, label %9

8:                                                ; preds = %6
  call void @unlock_slurmctld(ptr noundef nonnull byval(%struct.slurmctld_lock_t) align 8 @__const._update_resv_jobs.job_write_lock) #19
  br label %12

9:                                                ; preds = %6
  %10 = load ptr, ptr @job_list, align 8
  %11 = call i32 @list_for_each(ptr noundef %10, ptr noundef nonnull @_set_job_resvid, ptr noundef nonnull %7) #19
  call void @unlock_slurmctld(ptr noundef nonnull byval(%struct.slurmctld_lock_t) align 8 @__const._update_resv_jobs.job_write_lock) #19
  br label %12

12:                                               ; preds = %9, %8, %5
  call void @llvm.lifetime.end.p0(i64 4, ptr nonnull %2) #19
  ret ptr null
}